target datalayout = "e-m:e-p270:32:32-p271:32:32-p272:64:64-i64:64-i128:128-f80:128-n8:16:32:64-S128"
target triple = "x86_64-pc-linux-gnu"

%struct.slurm_conf_t = type { i64, ptr, i16, ptr, ptr, ptr, ptr, ptr, i16, ptr, ptr, ptr, ptr, ptr, ptr, ptr, i16, ptr, ptr, ptr, ptr, i16, ptr, ptr, ptr, i64, ptr, ptr, ptr, ptr, i16, ptr, ptr, i16, i32, ptr, i32, ptr, i32, i32, ptr, ptr, i64, i64, ptr, i16, i16, ptr, i32, i32, ptr, i32, ptr, i32, i16, i16, i16, ptr, i16, i16, ptr, ptr, i32, i16, i16, ptr, i32, i16, ptr, ptr, ptr, ptr, i16, ptr, ptr, ptr, ptr, i32, ptr, ptr, ptr, ptr, i16, i16, ptr, i32, i32, i32, i16, i16, ptr, ptr, i16, ptr, ptr, i32, i32, i32, i32, i32, i64, i32, i32, i16, ptr, ptr, i32, ptr, ptr, ptr, i16, i32, ptr, ptr, i16, ptr, ptr, i32, i16, ptr, ptr, ptr, ptr, i32, i32, i16, i16, i32, ptr, i16, ptr, i32, i32, i32, i32, i32, i32, ptr, i16, ptr, ptr, i32, i16, ptr, i32, i16, i16, ptr, ptr, ptr, i16, ptr, ptr, ptr, ptr, i16, i16, ptr, i16, ptr, i16, ptr, i16, ptr, i16, ptr, ptr, ptr, ptr, i16, ptr, ptr, ptr, i32, ptr, i32, ptr, ptr, i16, ptr, ptr, i32, i16, ptr, ptr, i16, i16, ptr, i16, ptr, ptr, ptr, i32, ptr, i16, i16, ptr, ptr, ptr, ptr, ptr, ptr, ptr, ptr, i16, i32, i16, ptr, ptr, ptr, ptr, i32, ptr, ptr, ptr, i16, ptr, ptr, ptr, i16, ptr, i16, ptr, i16, i16, ptr }
%struct.persist_conn_t = type { ptr, i32, i32, i8, ptr, ptr, ptr, i64, i16, i32, i16, i8, i32, i32, ptr, i16, ptr, i64, i32, ptr, %struct.slurm_trigger_callbacks_t, i16 }
%struct.slurm_trigger_callbacks_t = type { ptr, ptr, ptr, ptr, ptr }
%struct.slurmdbd_ping_t = type { ptr, i8, i64, i32 }
%struct.timeval = type { i64, i64 }

@.str.2 = private unnamed_addr constant [15 x i8] c"slurmdb_defs.c\00", align 1
@slurm_conf = external global %struct.slurm_conf_t, align 8
@__func__.slurmdb_ping = private unnamed_addr constant [13 x i8] c"slurmdb_ping\00", align 1

; Function Attrs: nounwind uwtable
define dso_local i32 @slurmdb_ping(ptr noundef %0) #0 {
  %2 = alloca ptr, align 8
  %3 = alloca i32, align 4
  %4 = alloca ptr, align 8
  store ptr %0, ptr %2, align 8
  call void @llvm.lifetime.start.p0(i64 4, ptr %3) #10
  call void @llvm.lifetime.start.p0(i64 8, ptr %4) #10
  %5 = call ptr @slurm_xcalloc(i64 noundef 1, i64 noundef 176, i1 noundef zeroext true, i1 noundef zeroext false, ptr noundef @.str.2, i32 noundef 2291, ptr noundef @__func__.slurmdb_ping)
  store ptr %5, ptr %4, align 8
  %6 = load ptr, ptr getelementptr inbounds nuw (%struct.slurm_conf_t, ptr @slurm_conf, i32 0, i32 31), align 8
  %7 = call ptr @xstrdup(ptr noundef %6)
  %8 = load ptr, ptr %4, align 8
  %9 = getelementptr inbounds nuw %struct.persist_conn_t, ptr %8, i32 0, i32 6
  store ptr %7, ptr %9, align 8
  %10 = load ptr, ptr %4, align 8
  %11 = getelementptr inbounds nuw %struct.persist_conn_t, ptr %10, i32 0, i32 10
  store i16 17, ptr %11, align 8
  %12 = load ptr, ptr %4, align 8
  %13 = getelementptr inbounds nuw %struct.persist_conn_t, ptr %12, i32 0, i32 13
  store i32 -1, ptr %13, align 8
  %14 = load ptr, ptr %2, align 8
  %15 = call ptr @xstrdup(ptr noundef %14)
  %16 = load ptr, ptr %4, align 8
  %17 = getelementptr inbounds nuw %struct.persist_conn_t, ptr %16, i32 0, i32 14
  store ptr %15, ptr %17, align 8
  %18 = load i16, ptr getelementptr inbounds nuw (%struct.slurm_conf_t, ptr @slurm_conf, i32 0, i32 8), align 8
  %19 = load ptr, ptr %4, align 8
  %20 = getelementptr inbounds nuw %struct.persist_conn_t, ptr %19, i32 0, i32 15
  store i16 %18, ptr %20, align 8
  %21 = load i16, ptr getelementptr inbounds nuw (%struct.slurm_conf_t, ptr @slurm_conf, i32 0, i32 110), align 8
  %22 = zext i16 %21 to i32
  %23 = mul nsw i32 %22, 1000
  %24 = load ptr, ptr %4, align 8
  %25 = getelementptr inbounds nuw %struct.persist_conn_t, ptr %24, i32 0, i32 18
  store i32 %23, ptr %25, align 8
  %26 = load ptr, ptr %4, align 8
  %27 = call i32 @slurm_persist_conn_open(ptr noundef %26)
  store i32 %27, ptr %3, align 4
  %28 = load ptr, ptr %4, align 8
  call void @slurm_persist_conn_destroy(ptr noundef %28)
  %29 = load i32, ptr %3, align 4
  call void @llvm.lifetime.end.p0(i64 8, ptr %4) #10
  call void @llvm.lifetime.end.p0(i64 4, ptr %3) #10
  ret i32 %29
}

; Function Attrs: nounwind uwtable
define internal void @_ping_slurmdbd(ptr noundef %0, i32 noundef %1) #0 {
  %3 = alloca ptr, align 8
  %4 = alloca i32, align 4
  %5 = alloca %struct.timeval, align 8
  %6 = alloca %struct.timeval, align 8
  %7 = alloca [20 x i8], align 16
  %8 = alloca i64, align 8
  store ptr %0, ptr %3, align 8
  store i32 %1, ptr %4, align 4
  call void @llvm.lifetime.start.p0(i64 16, ptr %5) #10
  call void @llvm.lifetime.start.p0(i64 16, ptr %6) #10
  call void @llvm.lifetime.start.p0(i64 20, ptr %7) #10
  call void @llvm.memset.p0.i64(ptr align 16 %7, i8 0, i64 20, i1 false)
  call void @llvm.lifetime.start.p0(i64 8, ptr %8) #10
  %9 = load i32, ptr %4, align 4
  %10 = load ptr, ptr %3, align 8
  %11 = getelementptr inbounds nuw %struct.slurmdbd_ping_t, ptr %10, i32 0, i32 3
  store i32 %9, ptr %11, align 8
  %12 = call i32 @gettimeofday(ptr noundef %5, ptr noundef null) #10
  %13 = load ptr, ptr %3, align 8
  %14 = getelementptr inbounds nuw %struct.slurmdbd_ping_t, ptr %13, i32 0, i32 0
  %15 = load ptr, ptr %14, align 8
  %16 = call i32 @slurmdb_ping(ptr noundef %15)
  %17 = icmp ne i32 %16, 0
  %18 = xor i1 %17, true
  %19 = load ptr, ptr %3, align 8
  %20 = getelementptr inbounds nuw %struct.slurmdbd_ping_t, ptr %19, i32 0, i32 1
  %21 = zext i1 %18 to i8
  store i8 %21, ptr %20, align 8
  br label %22

22:                                               ; preds = %2
  %23 = call i32 @gettimeofday(ptr noundef %6, ptr noundef null) #10
  %24 = getelementptr inbounds [20 x i8], ptr %7, i64 0, i64 0
  call void @slurm_diff_tv_str(ptr noundef %5, ptr noundef %6, ptr noundef %24, i32 noundef 20, ptr noundef null, i64 noundef 0, ptr noundef %8)
  br label %25

25:                                               ; preds = %22
  br label %26

26:                                               ; preds = %25
  %27 = load i64, ptr %8, align 8
  %28 = load ptr, ptr %3, align 8
  %29 = getelementptr inbounds nuw %struct.slurmdbd_ping_t, ptr %28, i32 0, i32 2
  store i64 %27, ptr %29, align 8
  call void @llvm.lifetime.end.p0(i64 8, ptr %8) #10
  call void @llvm.lifetime.end.p0(i64 20, ptr %7) #10
  call void @llvm.lifetime.end.p0(i64 16, ptr %6) #10
  call void @llvm.lifetime.end.p0(i64 16, ptr %5) #10
  ret void
}