; Function Attrs: nounwind uwtable
define internal fastcc void @_ping_slurmdbd(ptr noundef captures(none) initializes((8, 9), (16, 28)) %0, i32 noundef range(i32 0, 2) %1) unnamed_addr #0 {
  %3 = alloca %struct.timeval, align 8
  %4 = alloca %struct.timeval, align 8
  %5 = alloca [20 x i8], align 16
  %6 = alloca i64, align 8
  call void @llvm.lifetime.start.p0(i64 16, ptr nonnull %3) #19
  call void @llvm.lifetime.start.p0(i64 16, ptr nonnull %4) #19
  call void @llvm.lifetime.start.p0(i64 20, ptr nonnull %5) #19
  call void @llvm.memset.p0.i64(ptr noundef nonnull align 16 dereferenceable(20) %5, i8 0, i64 20, i1 false)
  call void @llvm.lifetime.start.p0(i64 8, ptr nonnull %6) #19
  %7 = getelementptr inbounds nuw i8, ptr %0, i64 24
  store i32 %1, ptr %7, align 8
  %8 = call i32 @gettimeofday(ptr noundef nonnull %3, ptr noundef null) #19
  %9 = load ptr, ptr %0, align 8
  %10 = tail call ptr @slurm_xcalloc(i64 noundef 1, i64 noundef 176, i1 noundef zeroext true, i1 noundef zeroext false, ptr noundef nonnull @.str.2, i32 noundef 2291, ptr noundef nonnull @__func__.slurmdb_ping) #19
  %11 = load ptr, ptr getelementptr inbounds nuw (i8, ptr @slurm_conf, i64 248), align 8
  %12 = tail call ptr @xstrdup(ptr noundef %11) #19
  %13 = getelementptr inbounds nuw i8, ptr %10, i64 40
  store ptr %12, ptr %13, align 8
  %14 = getelementptr inbounds nuw i8, ptr %10, i64 64
  store i16 17, ptr %14, align 8
  %15 = getelementptr inbounds nuw i8, ptr %10, i64 72
  store i32 -1, ptr %15, align 8
  %16 = tail call ptr @xstrdup(ptr noundef %9) #19
  %17 = getelementptr inbounds nuw i8, ptr %10, i64 80
  store ptr %16, ptr %17, align 8
  %18 = load i16, ptr getelementptr inbounds nuw (i8, ptr @slurm_conf, i64 64), align 8
  %19 = getelementptr inbounds nuw i8, ptr %10, i64 88
  store i16 %18, ptr %19, align 8
  %20 = load i16, ptr getelementptr inbounds nuw (i8, ptr @slurm_conf, i64 744), align 8
  %21 = zext i16 %20 to i32
  %22 = mul nuw nsw i32 %21, 1000
  %23 = getelementptr inbounds nuw i8, ptr %10, i64 112
  store i32 %22, ptr %23, align 8
  %24 = tail call i32 @slurm_persist_conn_open(ptr noundef %10) #19
  tail call void @slurm_persist_conn_destroy(ptr noundef %10) #19
  %.not = icmp eq i32 %24, 0
  %25 = getelementptr inbounds nuw i8, ptr %0, i64 8
  %26 = zext i1 %.not to i8
  store i8 %26, ptr %25, align 8
  %27 = call i32 @gettimeofday(ptr noundef nonnull %4, ptr noundef null) #19
  call void @slurm_diff_tv_str(ptr noundef nonnull %3, ptr noundef nonnull %4, ptr noundef nonnull %5, i32 noundef 20, ptr noundef null, i64 noundef 0, ptr noundef nonnull %6) #19
  %28 = load i64, ptr %6, align 8
  %29 = getelementptr inbounds nuw i8, ptr %0, i64 16
  store i64 %28, ptr %29, align 8
  call void @llvm.lifetime.end.p0(i64 8, ptr nonnull %6) #19
  call void @llvm.lifetime.end.p0(i64 20, ptr nonnull %5) #19
  call void @llvm.lifetime.end.p0(i64 16, ptr nonnull %4) #19
  call void @llvm.lifetime.end.p0(i64 16, ptr nonnull %3) #19
  ret void
}